target datalayout = "e-m:e-p270:32:32-p271:32:32-p272:64:64-i64:64-i128:128-f80:128-n8:16:32:64-S128"
target triple = "x86_64-pc-linux-gnu"

%struct.fuzzer_value_st = type { i64, i64 }
%struct.ht_key_header_st = type { i64, ptr }
%struct.ht_value_st = type { ptr, ptr, %struct.ht_key_header_st }

@prediction_table = internal global ptr null, align 8
@valfound = internal global i32 0, align 4
@fz_FUZZER_VALUE_id = internal global i64 0, align 8

; Function Attrs: nounwind uwtable
define internal ptr @ossl_ht_fz_FUZZER_VALUE_from_value(ptr noundef %0) #0 {
  %2 = alloca ptr, align 8
  %3 = alloca ptr, align 8
  %4 = alloca ptr, align 8
  %5 = alloca i32, align 4
  store ptr %0, ptr %3, align 8, !tbaa !15
  call void @llvm.lifetime.start.p0(i64 8, ptr %4) #6
  store ptr @fz_FUZZER_VALUE_id, ptr %4, align 8, !tbaa !51
  %6 = load ptr, ptr %3, align 8, !tbaa !15
  %7 = icmp eq ptr %6, null
  br i1 %7, label %8, label %9

8:                                                ; preds = %1
  store ptr null, ptr %2, align 8
  store i32 1, ptr %5, align 4
  br label %20

9:                                                ; preds = %1
  %10 = load ptr, ptr %3, align 8, !tbaa !15
  %11 = getelementptr inbounds nuw %struct.ht_value_st, ptr %10, i32 0, i32 1
  %12 = load ptr, ptr %11, align 8, !tbaa !48
  %13 = load ptr, ptr %4, align 8, !tbaa !51
  %14 = icmp ne ptr %12, %13
  br i1 %14, label %15, label %16

15:                                               ; preds = %9
  store ptr null, ptr %2, align 8
  store i32 1, ptr %5, align 4
  br label %20

16:                                               ; preds = %9
  %17 = load ptr, ptr %3, align 8, !tbaa !15
  %18 = getelementptr inbounds nuw %struct.ht_value_st, ptr %17, i32 0, i32 0
  %19 = load ptr, ptr %18, align 8, !tbaa !34
  store ptr %19, ptr %2, align 8
  store i32 1, ptr %5, align 4
  br label %20

20:                                               ; preds = %16, %15, %8
  call void @llvm.lifetime.end.p0(i64 8, ptr %4) #6
  %21 = load ptr, ptr %2, align 8
  ret ptr %21
}

; Function Attrs: nounwind uwtable
define internal i32 @table_iterator(ptr noundef %0, ptr noundef %1) #0 {
  %3 = alloca i32, align 4
  %4 = alloca ptr, align 8
  %5 = alloca ptr, align 8
  %6 = alloca i16, align 2
  %7 = alloca ptr, align 8
  %8 = alloca i32, align 4
  store ptr %0, ptr %4, align 8, !tbaa !15
  store ptr %1, ptr %5, align 8, !tbaa !50
  call void @llvm.lifetime.start.p0(i64 2, ptr %6) #6
  %9 = load ptr, ptr %5, align 8, !tbaa !50
  %10 = load i16, ptr %9, align 2, !tbaa !32
  store i16 %10, ptr %6, align 2, !tbaa !32
  call void @llvm.lifetime.start.p0(i64 8, ptr %7) #6
  %11 = load ptr, ptr %4, align 8, !tbaa !15
  %12 = call ptr @ossl_ht_fz_FUZZER_VALUE_from_value(ptr noundef %11)
  store ptr %12, ptr %7, align 8, !tbaa !11
  %13 = load ptr, ptr %7, align 8, !tbaa !11
  %14 = icmp ne ptr %13, null
  br i1 %14, label %15, label %23

15:                                               ; preds = %2
  %16 = load ptr, ptr %7, align 8, !tbaa !11
  %17 = load ptr, ptr @prediction_table, align 8, !tbaa !11
  %18 = load i16, ptr %6, align 2, !tbaa !32
  %19 = zext i16 %18 to i64
  %20 = getelementptr inbounds nuw %struct.fuzzer_value_st, ptr %17, i64 %19
  %21 = icmp eq ptr %16, %20
  br i1 %21, label %22, label %23

22:                                               ; preds = %15
  store i32 1, ptr @valfound, align 4, !tbaa !23
  store i32 0, ptr %3, align 4
  store i32 1, ptr %8, align 4
  br label %24

23:                                               ; preds = %15, %2
  store i32 1, ptr %3, align 4
  store i32 1, ptr %8, align 4
  br label %24

24:                                               ; preds = %23, %22
  call void @llvm.lifetime.end.p0(i64 8, ptr %7) #6
  call void @llvm.lifetime.end.p0(i64 2, ptr %6) #6
  %25 = load i32, ptr %3, align 4
  ret i32 %25
}